; ModuleID = '17/1246.c'
source_filename = "17/1246.c"
target datalayout = "e-m:e-p270:32:32-p271:32:32-p272:64:64-i64:64-f80:128-n8:16:32:64-S128"
target triple = "x86_64-pc-linux-gnu"

@.str = private unnamed_addr constant [3 x i8] c"%d\00", align 1
@.str.1 = private unnamed_addr constant [3 x i8] c"%c\00", align 1
@.str.2 = private unnamed_addr constant [2 x i8] c"\0A\00", align 1

; Function Attrs: noinline nounwind uwtable
define dso_local i32 @main() #0 {
  %1 = alloca i32, align 4
  %2 = alloca i32, align 4
  %3 = alloca i32, align 4
  %4 = alloca i32, align 4
  %5 = alloca i32, align 4
  %6 = alloca i32, align 4
  %7 = alloca i32, align 4
  %8 = alloca i32, align 4
  %9 = alloca [105 x i8], align 16
  %10 = alloca [105 x i8], align 16
  store i32 0, i32* %1, align 4
  store i32 0, i32* %6, align 4
  %11 = call i32 (i8*, ...) @__isoc99_scanf(i8* getelementptr inbounds ([3 x i8], [3 x i8]* @.str, i64 0, i64 0), i32* %2)
  %12 = call i32 @getchar()
  store i32 0, i32* %3, align 4
  br label %13

13:                                               ; preds = %172, %0
  %14 = load i32, i32* %3, align 4
  %15 = load i32, i32* %2, align 4
  %16 = icmp slt i32 %14, %15
  br i1 %16, label %17, label %175

17:                                               ; preds = %13
  %18 = bitcast [105 x i8]* %10 to i8*
  call void @llvm.memset.p0i8.i64(i8* align 16 %18, i8 0, i64 105, i1 false)
  %19 = getelementptr inbounds [105 x i8], [105 x i8]* %10, i64 0, i64 0
  %20 = call i32 (i8*, ...) bitcast (i32 (...)* @gets to i32 (i8*, ...)*)(i8* %19)
  %21 = getelementptr inbounds [105 x i8], [105 x i8]* %10, i64 0, i64 0
  %22 = call i64 @strlen(i8* %21) #4
  %23 = trunc i64 %22 to i32
  store i32 %23, i32* %5, align 4
  store i32 0, i32* %4, align 4
  br label %24

24:                                               ; preds = %71, %17
  %25 = load i32, i32* %4, align 4
  %26 = load i32, i32* %5, align 4
  %27 = icmp slt i32 %25, %26
  br i1 %27, label %28, label %74

28:                                               ; preds = %24
  %29 = load i32, i32* %4, align 4
  %30 = sext i32 %29 to i64
  %31 = getelementptr inbounds [105 x i8], [105 x i8]* %10, i64 0, i64 %30
  %32 = load i8, i8* %31, align 1
  %33 = sext i8 %32 to i32
  %34 = icmp eq i32 %33, 40
  br i1 %34, label %35, label %39

35:                                               ; preds = %28
  %36 = load i32, i32* %4, align 4
  %37 = sext i32 %36 to i64
  %38 = getelementptr inbounds [105 x i8], [105 x i8]* %9, i64 0, i64 %37
  store i8 36, i8* %38, align 1
  br label %70

39:                                               ; preds = %28
  %40 = load i32, i32* %4, align 4
  %41 = sext i32 %40 to i64
  %42 = getelementptr inbounds [105 x i8], [105 x i8]* %10, i64 0, i64 %41
  %43 = load i8, i8* %42, align 1
  %44 = sext i8 %43 to i32
  %45 = icmp eq i32 %44, 41
  br i1 %45, label %46, label %50

46:                                               ; preds = %39
  %47 = load i32, i32* %4, align 4
  %48 = sext i32 %47 to i64
  %49 = getelementptr inbounds [105 x i8], [105 x i8]* %9, i64 0, i64 %48
  store i8 63, i8* %49, align 1
  br label %69

50:                                               ; preds = %39
  %51 = load i32, i32* %4, align 4
  %52 = sext i32 %51 to i64
  %53 = getelementptr inbounds [105 x i8], [105 x i8]* %10, i64 0, i64 %52
  %54 = load i8, i8* %53, align 1
  %55 = sext i8 %54 to i32
  %56 = icmp ne i32 %55, 40
  br i1 %56, label %57, label %68

57:                                               ; preds = %50
  %58 = load i32, i32* %4, align 4
  %59 = sext i32 %58 to i64
  %60 = getelementptr inbounds [105 x i8], [105 x i8]* %10, i64 0, i64 %59
  %61 = load i8, i8* %60, align 1
  %62 = sext i8 %61 to i32
  %63 = icmp ne i32 %62, 41
  br i1 %63, label %64, label %68

64:                                               ; preds = %57
  %65 = load i32, i32* %4, align 4
  %66 = sext i32 %65 to i64
  %67 = getelementptr inbounds [105 x i8], [105 x i8]* %9, i64 0, i64 %66
  store i8 32, i8* %67, align 1
  br label %68

68:                                               ; preds = %64, %57, %50
  br label %69

69:                                               ; preds = %68, %46
  br label %70

70:                                               ; preds = %69, %35
  br label %71

71:                                               ; preds = %70
  %72 = load i32, i32* %4, align 4
  %73 = add nsw i32 %72, 1
  store i32 %73, i32* %4, align 4
  br label %24

74:                                               ; preds = %24
  store i32 0, i32* %7, align 4
  store i32 0, i32* %4, align 4
  br label %75

75:                                               ; preds = %136, %74
  %76 = load i32, i32* %4, align 4
  %77 = load i32, i32* %5, align 4
  %78 = icmp slt i32 %76, %77
  br i1 %78, label %79, label %139

79:                                               ; preds = %75
  %80 = load i32, i32* %4, align 4
  %81 = sext i32 %80 to i64
  %82 = getelementptr inbounds [105 x i8], [105 x i8]* %9, i64 0, i64 %81
  %83 = load i8, i8* %82, align 1
  %84 = sext i8 %83 to i32
  %85 = icmp eq i32 %84, 63
  br i1 %85, label %86, label %135

86:                                               ; preds = %79
  store i32 0, i32* %8, align 4
  %87 = load i32, i32* %7, align 4
  %88 = add nsw i32 %87, 1
  store i32 %88, i32* %7, align 4
  %89 = load i32, i32* %4, align 4
  store i32 %89, i32* %6, align 4
  br label %90

90:                                               ; preds = %122, %86
  %91 = load i32, i32* %6, align 4
  %92 = icmp sge i32 %91, 0
  br i1 %92, label %93, label %125

93:                                               ; preds = %90
  %94 = load i32, i32* %6, align 4
  %95 = sext i32 %94 to i64
  %96 = getelementptr inbounds [105 x i8], [105 x i8]* %9, i64 0, i64 %95
  %97 = load i8, i8* %96, align 1
  %98 = sext i8 %97 to i32
  %99 = icmp eq i32 %98, 36
  br i1 %99, label %100, label %121

100:                                              ; preds = %93
  %101 = load i32, i32* %8, align 4
  %102 = add nsw i32 %101, 1
  store i32 %102, i32* %8, align 4
  %103 = load i32, i32* %6, align 4
  %104 = load i32, i32* %4, align 4
  %105 = sub nsw i32 %104, 1
  %106 = icmp eq i32 %103, %105
  br i1 %106, label %111, label %107

107:                                              ; preds = %100
  %108 = load i32, i32* %7, align 4
  %109 = load i32, i32* %8, align 4
  %110 = icmp eq i32 %108, %109
  br i1 %110, label %111, label %120

111:                                              ; preds = %107, %100
  %112 = load i32, i32* %7, align 4
  %113 = add nsw i32 %112, -1
  store i32 %113, i32* %7, align 4
  %114 = load i32, i32* %6, align 4
  %115 = sext i32 %114 to i64
  %116 = getelementptr inbounds [105 x i8], [105 x i8]* %9, i64 0, i64 %115
  store i8 32, i8* %116, align 1
  %117 = load i32, i32* %4, align 4
  %118 = sext i32 %117 to i64
  %119 = getelementptr inbounds [105 x i8], [105 x i8]* %9, i64 0, i64 %118
  store i8 32, i8* %119, align 1
  br label %125

120:                                              ; preds = %107
  br label %121

121:                                              ; preds = %120, %93
  br label %122

122:                                              ; preds = %121
  %123 = load i32, i32* %6, align 4
  %124 = add nsw i32 %123, -1
  store i32 %124, i32* %6, align 4
  br label %90

125:                                              ; preds = %111, %90
  %126 = load i32, i32* %6, align 4
  %127 = icmp eq i32 %126, -1
  br i1 %127, label %128, label %134

128:                                              ; preds = %125
  %129 = load i32, i32* %7, align 4
  %130 = add nsw i32 %129, -1
  store i32 %130, i32* %7, align 4
  %131 = load i32, i32* %4, align 4
  %132 = sext i32 %131 to i64
  %133 = getelementptr inbounds [105 x i8], [105 x i8]* %9, i64 0, i64 %132
  store i8 63, i8* %133, align 1
  br label %134

134:                                              ; preds = %128, %125
  br label %135

135:                                              ; preds = %134, %79
  br label %136

136:                                              ; preds = %135
  %137 = load i32, i32* %4, align 4
  %138 = add nsw i32 %137, 1
  store i32 %138, i32* %4, align 4
  br label %75

139:                                              ; preds = %75
  store i32 0, i32* %4, align 4
  br label %140

140:                                              ; preds = %151, %139
  %141 = load i32, i32* %4, align 4
  %142 = load i32, i32* %5, align 4
  %143 = icmp slt i32 %141, %142
  br i1 %143, label %144, label %154

144:                                              ; preds = %140
  %145 = load i32, i32* %4, align 4
  %146 = sext i32 %145 to i64
  %147 = getelementptr inbounds [105 x i8], [105 x i8]* %10, i64 0, i64 %146
  %148 = load i8, i8* %147, align 1
  %149 = sext i8 %148 to i32
  %150 = call i32 (i8*, ...) @printf(i8* getelementptr inbounds ([3 x i8], [3 x i8]* @.str.1, i64 0, i64 0), i32 %149)
  br label %151

151:                                              ; preds = %144
  %152 = load i32, i32* %4, align 4
  %153 = add nsw i32 %152, 1
  store i32 %153, i32* %4, align 4
  br label %140

154:                                              ; preds = %140
  %155 = call i32 (i8*, ...) @printf(i8* getelementptr inbounds ([2 x i8], [2 x i8]* @.str.2, i64 0, i64 0))
  store i32 0, i32* %4, align 4
  br label %156

156:                                              ; preds = %167, %154
  %157 = load i32, i32* %4, align 4
  %158 = load i32, i32* %5, align 4
  %159 = icmp slt i32 %157, %158
  br i1 %159, label %160, label %170

160:                                              ; preds = %156
  %161 = load i32, i32* %4, align 4
  %162 = sext i32 %161 to i64
  %163 = getelementptr inbounds [105 x i8], [105 x i8]* %9, i64 0, i64 %162
  %164 = load i8, i8* %163, align 1
  %165 = sext i8 %164 to i32
  %166 = call i32 (i8*, ...) @printf(i8* getelementptr inbounds ([3 x i8], [3 x i8]* @.str.1, i64 0, i64 0), i32 %165)
  br label %167

167:                                              ; preds = %160
  %168 = load i32, i32* %4, align 4
  %169 = add nsw i32 %168, 1
  store i32 %169, i32* %4, align 4
  br label %156

170:                                              ; preds = %156
  %171 = call i32 (i8*, ...) @printf(i8* getelementptr inbounds ([2 x i8], [2 x i8]* @.str.2, i64 0, i64 0))
  br label %172

172:                                              ; preds = %170
  %173 = load i32, i32* %3, align 4
  %174 = add nsw i32 %173, 1
  store i32 %174, i32* %3, align 4
  br label %13

175:                                              ; preds = %13
  ret i32 0
}

declare dso_local i32 @__isoc99_scanf(i8*, ...) #1

declare dso_local i32 @getchar() #1

; Function Attrs: argmemonly nounwind willreturn
declare void @llvm.memset.p0i8.i64(i8* nocapture writeonly, i8, i64, i1 immarg) #2

declare dso_local i32 @gets(...) #1

; Function Attrs: nounwind readonly
declare dso_local i64 @strlen(i8*) #3

declare dso_local i32 @printf(i8*, ...) #1


!llvm.module.flags = !{!0}
!llvm.ident = !{!1}

!0 = !{i32 1, !"wchar_size", i32 4}
!1 = !{!"clang version 10.0.0-4ubuntu1 "}
